target datalayout = "e-m:e-p270:32:32-p271:32:32-p272:64:64-i64:64-i128:128-f80:128-n8:16:32:64-S128"
target triple = "x86_64-pc-linux-gnu"

%"class.cvc5::internal::Integer" = type { %class.__gmp_expr }
%class.__gmp_expr = type { [1 x %struct.__mpz_struct] }
%struct.__mpz_struct = type { i32, i32, ptr }
%"class.cvc5::internal::BitVector" = type { i32, %"class.cvc5::internal::Integer" }
%"struct.cvc5::internal::PairHashFunction" = type { i8 }
%"struct.std::pair" = type { i64, i64 }
%"struct.std::pair.0" = type <{ i64, i32, [4 x i8] }>
%"struct.std::hash" = type { i8 }

; Function Attrs: inlinehint mustprogress nounwind uwtable
define linkonce_odr hidden noundef i64 @_ZN4cvc58internal5fnv1a8fnv1a_64Emm(i64 noundef %0, i64 noundef %1) #14 comdat {
  %3 = alloca i64, align 8
  %4 = alloca i64, align 8
  store i64 %0, ptr %3, align 8, !tbaa !26
  store i64 %1, ptr %4, align 8, !tbaa !26
  %5 = load i64, ptr %3, align 8, !tbaa !26
  %6 = load i64, ptr %4, align 8, !tbaa !26
  %7 = xor i64 %6, %5
  store i64 %7, ptr %4, align 8, !tbaa !26
  %8 = load i64, ptr %4, align 8, !tbaa !26
  %9 = load i64, ptr %4, align 8, !tbaa !26
  %10 = shl i64 %9, 1
  %11 = add i64 %8, %10
  %12 = load i64, ptr %4, align 8, !tbaa !26
  %13 = shl i64 %12, 4
  %14 = add i64 %11, %13
  %15 = load i64, ptr %4, align 8, !tbaa !26
  %16 = shl i64 %15, 5
  %17 = add i64 %14, %16
  %18 = load i64, ptr %4, align 8, !tbaa !26
  %19 = shl i64 %18, 7
  %20 = add i64 %17, %19
  %21 = load i64, ptr %4, align 8, !tbaa !26
  %22 = shl i64 %21, 8
  %23 = add i64 %20, %22
  %24 = load i64, ptr %4, align 8, !tbaa !26
  %25 = shl i64 %24, 40
  %26 = add i64 %23, %25
  ret i64 %26
}

; Function Attrs: mustprogress nounwind uwtable
define linkonce_odr hidden noundef i64 @_ZNKSt4hashImEclEm(ptr noundef nonnull align 1 dereferenceable(1) %0, i64 noundef %1) #6 comdat align 2 {
  %3 = alloca ptr, align 8
  %4 = alloca i64, align 8
  store ptr %0, ptr %3, align 8, !tbaa !67
  store i64 %1, ptr %4, align 8, !tbaa !26
  %5 = load i64, ptr %4, align 8, !tbaa !26
  ret i64 %5
}

; Function Attrs: mustprogress nounwind uwtable
define linkonce_odr hidden void @_ZNSt4pairImjEC2ImRKjTnNSt9enable_ifIXaaclsr5_PCCPE22_MoveConstructiblePairIT_T0_EEclsr5_PCCPE30_ImplicitlyMoveConvertiblePairIS5_S6_EEEbE4typeELb1EEEOS5_OS6_(ptr noundef nonnull align 8 dereferenceable(12) %0, ptr noundef nonnull align 8 dereferenceable(8) %1, ptr noundef nonnull align 4 dereferenceable(4) %2) unnamed_addr #6 comdat align 2 {
  %4 = alloca ptr, align 8
  %5 = alloca ptr, align 8
  %6 = alloca ptr, align 8
  store ptr %0, ptr %4, align 8, !tbaa !39
  store ptr %1, ptr %5, align 8, !tbaa !35
  store ptr %2, ptr %6, align 8, !tbaa !37
  %7 = load ptr, ptr %4, align 8
  %8 = getelementptr inbounds nuw %"struct.std::pair.0", ptr %7, i32 0, i32 0
  %9 = load ptr, ptr %5, align 8, !tbaa !35
  %10 = load i64, ptr %9, align 8, !tbaa !26
  store i64 %10, ptr %8, align 8, !tbaa !50
  %11 = getelementptr inbounds nuw %"struct.std::pair.0", ptr %7, i32 0, i32 1
  %12 = load ptr, ptr %6, align 8, !tbaa !37
  %13 = load i32, ptr %12, align 4, !tbaa !10
  store i32 %13, ptr %11, align 8, !tbaa !52
  ret void
}

; Function Attrs: mustprogress uwtable
define linkonce_odr hidden noundef i64 @_ZNK4cvc58internal16PairHashFunctionImmSt4hashImES3_EclERKSt4pairImmE(ptr noundef nonnull align 1 dereferenceable(1) %0, ptr noundef nonnull align 8 dereferenceable(16) %1) #4 comdat align 2 {
  %3 = alloca ptr, align 8
  %4 = alloca ptr, align 8
  %5 = alloca i64, align 8
  %6 = alloca %"struct.std::hash", align 1
  %7 = alloca %"struct.std::hash", align 1
  store ptr %0, ptr %3, align 8, !tbaa !28
  store ptr %1, ptr %4, align 8, !tbaa !30
  call void @llvm.lifetime.start.p0(i64 8, ptr %5) #3
  call void @llvm.lifetime.start.p0(i64 1, ptr %6) #3
  %8 = load ptr, ptr %4, align 8, !tbaa !30
  %9 = getelementptr inbounds nuw %"struct.std::pair", ptr %8, i32 0, i32 0
  %10 = load i64, ptr %9, align 8, !tbaa !32
  %11 = call noundef i64 @_ZNKSt4hashImEclEm(ptr noundef nonnull align 1 dereferenceable(1) %6, i64 noundef %10) #3
  %12 = call noundef i64 @_ZN4cvc58internal5fnv1a8fnv1a_64Emm(i64 noundef %11, i64 noundef -3750763034362895579)
  call void @llvm.lifetime.end.p0(i64 1, ptr %6) #3
  store i64 %12, ptr %5, align 8, !tbaa !26
  call void @llvm.lifetime.start.p0(i64 1, ptr %7) #3
  %13 = load ptr, ptr %4, align 8, !tbaa !30
  %14 = getelementptr inbounds nuw %"struct.std::pair", ptr %13, i32 0, i32 1
  %15 = load i64, ptr %14, align 8, !tbaa !34
  %16 = call noundef i64 @_ZNKSt4hashImEclEm(ptr noundef nonnull align 1 dereferenceable(1) %7, i64 noundef %15) #3
  %17 = load i64, ptr %5, align 8, !tbaa !26
  %18 = call noundef i64 @_ZN4cvc58internal5fnv1a8fnv1a_64Emm(i64 noundef %16, i64 noundef %17)
  call void @llvm.lifetime.end.p0(i64 1, ptr %7) #3
  call void @llvm.lifetime.end.p0(i64 8, ptr %5) #3
  ret i64 %18
}

; Function Attrs: mustprogress nounwind uwtable
define linkonce_odr hidden void @_ZNSt4pairImmEC2ImjTnNSt9enable_ifIXaaclsr6_PCCFPIT_T0_EE22_MoveConstructiblePairIS3_S4_EEclsr6_PCCFPIS3_S4_EE30_ImplicitlyMoveConvertiblePairIS3_S4_EEEbE4typeELb1EEEOS_IS3_S4_E(ptr noundef nonnull align 8 dereferenceable(16) %0, ptr noundef nonnull align 8 dereferenceable(12) %1) unnamed_addr #6 comdat align 2 {
  %3 = alloca ptr, align 8
  %4 = alloca ptr, align 8
  store ptr %0, ptr %3, align 8, !tbaa !30
  store ptr %1, ptr %4, align 8, !tbaa !39
  %5 = load ptr, ptr %3, align 8
  %6 = getelementptr inbounds nuw %"struct.std::pair", ptr %5, i32 0, i32 0
  %7 = load ptr, ptr %4, align 8, !tbaa !39
  %8 = getelementptr inbounds nuw %"struct.std::pair.0", ptr %7, i32 0, i32 0
  %9 = load i64, ptr %8, align 8, !tbaa !26
  store i64 %9, ptr %6, align 8, !tbaa !32
  %10 = getelementptr inbounds nuw %"struct.std::pair", ptr %5, i32 0, i32 1
  %11 = load ptr, ptr %4, align 8, !tbaa !39
  %12 = getelementptr inbounds nuw %"struct.std::pair.0", ptr %11, i32 0, i32 1
  %13 = load i32, ptr %12, align 4, !tbaa !10
  %14 = zext i32 %13 to i64
  store i64 %14, ptr %10, align 8, !tbaa !34
  ret void
}

; Function Attrs: mustprogress uwtable
define linkonce_odr { i64, i32 } @_ZSt9make_pairImRKjESt4pairINSt25__strip_reference_wrapperINSt5decayIT_E4typeEE6__typeENS3_INS4_IT0_E4typeEE6__typeEEOS5_OSA_(ptr noundef nonnull align 8 dereferenceable(8) %0, ptr noundef nonnull align 4 dereferenceable(4) %1) #4 comdat {
  %3 = alloca %"struct.std::pair.0", align 8
  %4 = alloca ptr, align 8
  %5 = alloca ptr, align 8
  store ptr %0, ptr %4, align 8, !tbaa !35
  store ptr %1, ptr %5, align 8, !tbaa !37
  %6 = load ptr, ptr %4, align 8, !tbaa !35
  %7 = load ptr, ptr %5, align 8, !tbaa !37
  call void @_ZNSt4pairImjEC2ImRKjTnNSt9enable_ifIXaaclsr5_PCCPE22_MoveConstructiblePairIT_T0_EEclsr5_PCCPE30_ImplicitlyMoveConvertiblePairIS5_S6_EEEbE4typeELb1EEEOS5_OS6_(ptr noundef nonnull align 8 dereferenceable(12) %3, ptr noundef nonnull align 8 dereferenceable(8) %6, ptr noundef nonnull align 4 dereferenceable(4) %7)
  %8 = load { i64, i32 }, ptr %3, align 8
  ret { i64, i32 } %8
}

; Function Attrs: mustprogress uwtable
define hidden noundef i64 @_ZNK4cvc58internal9BitVector4hashEv(ptr noundef nonnull align 8 dereferenceable(24) %0) #4 align 2 {
  %2 = alloca ptr, align 8
  %3 = alloca %"struct.cvc5::internal::PairHashFunction", align 1
  %4 = alloca %"struct.std::pair", align 8
  %5 = alloca %"struct.std::pair.0", align 8
  %6 = alloca i64, align 8
  %7 = alloca { i64, i32 }, align 8
  store ptr %0, ptr %2, align 8, !tbaa !3
  %8 = load ptr, ptr %2, align 8
  call void @llvm.lifetime.start.p0(i64 1, ptr %3) #3
  call void @llvm.lifetime.start.p0(i64 16, ptr %4) #3
  call void @llvm.lifetime.start.p0(i64 16, ptr %5) #3
  call void @llvm.lifetime.start.p0(i64 8, ptr %6) #3
  %9 = getelementptr inbounds nuw %"class.cvc5::internal::BitVector", ptr %8, i32 0, i32 1
  %10 = call noundef i64 @_ZNK4cvc58internal7Integer4hashEv(ptr noundef nonnull align 8 dereferenceable(16) %9)
  store i64 %10, ptr %6, align 8, !tbaa !26
  %11 = getelementptr inbounds nuw %"class.cvc5::internal::BitVector", ptr %8, i32 0, i32 0
  %12 = call { i64, i32 } @_ZSt9make_pairImRKjESt4pairINSt25__strip_reference_wrapperINSt5decayIT_E4typeEE6__typeENS3_INS4_IT0_E4typeEE6__typeEEOS5_OSA_(ptr noundef nonnull align 8 dereferenceable(8) %6, ptr noundef nonnull align 4 dereferenceable(4) %11)
  store { i64, i32 } %12, ptr %7, align 8
  call void @llvm.memcpy.p0.p0.i64(ptr align 8 %5, ptr align 8 %7, i64 12, i1 false)
  call void @_ZNSt4pairImmEC2ImjTnNSt9enable_ifIXaaclsr6_PCCFPIT_T0_EE22_MoveConstructiblePairIS3_S4_EEclsr6_PCCFPIS3_S4_EE30_ImplicitlyMoveConvertiblePairIS3_S4_EEEbE4typeELb1EEEOS_IS3_S4_E(ptr noundef nonnull align 8 dereferenceable(16) %4, ptr noundef nonnull align 8 dereferenceable(12) %5)
  %13 = call noundef i64 @_ZNK4cvc58internal16PairHashFunctionImmSt4hashImES3_EclERKSt4pairImmE(ptr noundef nonnull align 1 dereferenceable(1) %3, ptr noundef nonnull align 8 dereferenceable(16) %4)
  call void @llvm.lifetime.end.p0(i64 8, ptr %6) #3
  call void @llvm.lifetime.end.p0(i64 16, ptr %5) #3
  call void @llvm.lifetime.end.p0(i64 16, ptr %4) #3
  call void @llvm.lifetime.end.p0(i64 1, ptr %3) #3
  ret i64 %13
}