; Function Attrs: mustprogress uwtable
define hidden noundef i64 @_ZNK4cvc58internal9BitVector4hashEv(ptr noundef nonnull align 8 dereferenceable(24) %0) local_unnamed_addr #3 align 2 {
  %2 = getelementptr inbounds nuw i8, ptr %0, i64 8
  %3 = tail call noundef i64 @_ZNK4cvc58internal7Integer4hashEv(ptr noundef nonnull align 8 dereferenceable(16) %2)
  %4 = load i32, ptr %0, align 8, !tbaa !25
  %5 = zext i32 %4 to i64
  %6 = xor i64 %3, -3750763034362895579
  %7 = mul i64 %6, 1099511628211
  %8 = xor i64 %7, %5
  %9 = mul i64 %8, 1099511628211
  ret i64 %9
}